; Function Attrs: mustprogress uwtable
define void @_ZN6LibRaw20kodak_thumb_load_rawEv(ptr noundef nonnull align 8 dereferenceable(767680) %0) local_unnamed_addr #0 align 2 {
  %2 = getelementptr inbounds nuw i8, ptr %0, i64 8
  %3 = load ptr, ptr %2, align 8, !tbaa !145
  %.not = icmp eq ptr %3, null
  br i1 %.not, label %4, label %6

4:                                                ; preds = %1
  %5 = tail call ptr @__cxa_allocate_exception(i64 4) #12
  store i32 5, ptr %5, align 16, !tbaa !73
  tail call void @__cxa_throw(ptr nonnull %5, ptr nonnull @_ZTI17LibRaw_exceptions, ptr null) #13
  unreachable

6:                                                ; preds = %1
  %7 = getelementptr inbounds nuw i8, ptr %0, i64 381640
  %8 = load i32, ptr %7, align 8, !tbaa !182
  %9 = lshr i32 %8, 5
  %10 = getelementptr inbounds nuw i8, ptr %0, i64 540
  store i32 %9, ptr %10, align 4, !tbaa !183
  %11 = getelementptr inbounds nuw i8, ptr %0, i64 20
  %12 = load i16, ptr %11, align 4, !tbaa !72
  %.not11 = icmp eq i16 %12, 0
  br i1 %.not11, label %._crit_edge10, label %.preheader.lr.ph

.preheader.lr.ph:                                 ; preds = %6
  %13 = getelementptr inbounds nuw i8, ptr %0, i64 22
  %.pre = load i16, ptr %13, align 2, !tbaa !6
  br label %.preheader

.preheader:                                       ; preds = %.preheader.lr.ph, %._crit_edge
  %14 = phi i16 [ %12, %.preheader.lr.ph ], [ %28, %._crit_edge ]
  %15 = phi i16 [ %.pre, %.preheader.lr.ph ], [ %29, %._crit_edge ]
  %.069 = phi i32 [ 0, %.preheader.lr.ph ], [ %30, %._crit_edge ]
  %.not12 = icmp eq i16 %15, 0
  br i1 %.not12, label %._crit_edge, label %.lr.ph.preheader

.lr.ph.preheader:                                 ; preds = %.preheader
  %16 = zext i16 %15 to i32
  br label %.lr.ph

.lr.ph:                                           ; preds = %.lr.ph.preheader, %.lr.ph
  %17 = phi i32 [ %26, %.lr.ph ], [ %16, %.lr.ph.preheader ]
  %.08 = phi i32 [ %24, %.lr.ph ], [ 0, %.lr.ph.preheader ]
  %18 = load ptr, ptr %2, align 8, !tbaa !145
  %19 = mul nuw nsw i32 %17, %.069
  %20 = add nuw nsw i32 %19, %.08
  %21 = zext nneg i32 %20 to i64
  %22 = getelementptr inbounds nuw [4 x i16], ptr %18, i64 %21
  %23 = load i32, ptr %10, align 4, !tbaa !183
  tail call void @_ZN6LibRaw11read_shortsEPtj(ptr noundef nonnull align 8 dereferenceable(767680) %0, ptr noundef %22, i32 noundef %23)
  %24 = add nuw nsw i32 %.08, 1
  %25 = load i16, ptr %13, align 2, !tbaa !6
  %26 = zext i16 %25 to i32
  %27 = icmp samesign ult i32 %24, %26
  br i1 %27, label %.lr.ph, label %._crit_edge.loopexit, !llvm.loop !184

._crit_edge.loopexit:                             ; preds = %.lr.ph
  %.pre13 = load i16, ptr %11, align 4, !tbaa !72
  br label %._crit_edge

._crit_edge:                                      ; preds = %._crit_edge.loopexit, %.preheader
  %28 = phi i16 [ %.pre13, %._crit_edge.loopexit ], [ %14, %.preheader ]
  %29 = phi i16 [ %25, %._crit_edge.loopexit ], [ 0, %.preheader ]
  %30 = add nuw nsw i32 %.069, 1
  %31 = zext i16 %28 to i32
  %32 = icmp samesign ult i32 %30, %31
  br i1 %32, label %.preheader, label %._crit_edge10.loopexit, !llvm.loop !185

._crit_edge10.loopexit:                           ; preds = %._crit_edge
  %.pre14 = load i32, ptr %7, align 8, !tbaa !182
  br label %._crit_edge10

._crit_edge10:                                    ; preds = %._crit_edge10.loopexit, %6
  %33 = phi i32 [ %.pre14, %._crit_edge10.loopexit ], [ %8, %6 ]
  %34 = and i32 %33, 31
  %notmask = shl nsw i32 -1, %34
  %35 = xor i32 %notmask, -1
  %36 = getelementptr inbounds nuw i8, ptr %0, i64 153000
  store i32 %35, ptr %36, align 8, !tbaa !107
  ret void
}